; Function Attrs: mustprogress uwtable
define internal fastcc void @_ZN12_GLOBAL__N_17opt_addERN5vcpkg4Json6ObjectENS0_13StringLiteralERKNS0_8OptionalINS0_4PathEEE(ptr noundef nonnull align 8 dereferenceable(24) %0, ptr %1, i64 range(i64 8, 11) %2, ptr noundef nonnull align 8 dereferenceable(40) %3) unnamed_addr #4 personality ptr @__gxx_personality_v0 {
  %5 = alloca %"class.std::__cxx11::basic_string", align 8
  %6 = alloca %"struct.vcpkg::StringView", align 8
  %7 = load i8, ptr %3, align 8, !tbaa !66, !range !37, !noundef !38
  %8 = trunc nuw i8 %7 to i1
  br i1 %8, label %9, label %32

9:                                                ; preds = %4
  %10 = getelementptr inbounds nuw i8, ptr %3, i64 8
  %11 = tail call noundef nonnull align 8 dereferenceable(32) ptr @_ZNKR5vcpkg4Path6nativeB5cxx11Ev(ptr noundef nonnull align 8 dereferenceable(32) %10) #15
  call void @llvm.lifetime.start.p0(i64 32, ptr nonnull %5) #15
  call void @llvm.lifetime.start.p0(i64 16, ptr nonnull %6) #15
  call void @_ZN5vcpkg10StringViewC1ERKNSt7__cxx1112basic_stringIcSt11char_traitsIcESaIcEEE(ptr noundef nonnull align 8 dereferenceable(16) %6, ptr noundef nonnull align 8 dereferenceable(32) %11) #15
  call void @_ZNK5vcpkg10StringView9to_stringB5cxx11Ev(ptr dead_on_unwind nonnull writable sret(%"class.std::__cxx11::basic_string") align 8 %5, ptr noundef nonnull align 8 dereferenceable(16) %6)
  %12 = invoke noundef nonnull align 8 dereferenceable(8) ptr @_ZN5vcpkg4Json6Object6insertENS_10StringViewEONSt7__cxx1112basic_stringIcSt11char_traitsIcESaIcEEE(ptr noundef nonnull align 8 dereferenceable(24) %0, ptr %1, i64 %2, ptr noundef nonnull align 8 dereferenceable(32) %5)
          to label %13 unwind label %22

13:                                               ; preds = %9
  %14 = load ptr, ptr %5, align 8, !tbaa !31
  %15 = getelementptr inbounds nuw i8, ptr %5, i64 16
  %16 = icmp eq ptr %14, %15
  br i1 %16, label %_ZNKSt7__cxx1112basic_stringIcSt11char_traitsIcESaIcEE11_M_is_localEv.exit.thread.i.i.i, label %_ZNKSt7__cxx1112basic_stringIcSt11char_traitsIcESaIcEE11_M_is_localEv.exit.i.i.i

_ZNKSt7__cxx1112basic_stringIcSt11char_traitsIcESaIcEE11_M_is_localEv.exit.thread.i.i.i: ; preds = %13
  %17 = getelementptr inbounds nuw i8, ptr %5, i64 8
  %18 = load i64, ptr %17, align 8, !tbaa !32
  %19 = icmp ult i64 %18, 16
  call void @llvm.assume(i1 %19)
  br label %_ZN5vcpkg4Json6Object6insertINSt7__cxx1112basic_stringIcSt11char_traitsIcESaIcEEETnNSt9enable_ifIXsr3stdE18is_constructible_vINS_10StringViewERKT_EEiE4typeELi0EEERNS0_5ValueESA_SD_.exit

_ZNKSt7__cxx1112basic_stringIcSt11char_traitsIcESaIcEE11_M_is_localEv.exit.i.i.i: ; preds = %13
  %20 = load i64, ptr %15, align 8, !tbaa !33
  %21 = add i64 %20, 1
  call void @_ZdlPvm(ptr noundef %14, i64 noundef %21) #16
  br label %_ZN5vcpkg4Json6Object6insertINSt7__cxx1112basic_stringIcSt11char_traitsIcESaIcEEETnNSt9enable_ifIXsr3stdE18is_constructible_vINS_10StringViewERKT_EEiE4typeELi0EEERNS0_5ValueESA_SD_.exit

22:                                               ; preds = %9
  %23 = landingpad { ptr, i32 }
          cleanup
  %24 = load ptr, ptr %5, align 8, !tbaa !31
  %25 = getelementptr inbounds nuw i8, ptr %5, i64 16
  %26 = icmp eq ptr %24, %25
  br i1 %26, label %_ZNKSt7__cxx1112basic_stringIcSt11char_traitsIcESaIcEE11_M_is_localEv.exit.thread.i.i6.i, label %_ZNKSt7__cxx1112basic_stringIcSt11char_traitsIcESaIcEE11_M_is_localEv.exit.i.i5.i

_ZNKSt7__cxx1112basic_stringIcSt11char_traitsIcESaIcEE11_M_is_localEv.exit.thread.i.i6.i: ; preds = %22
  %27 = getelementptr inbounds nuw i8, ptr %5, i64 8
  %28 = load i64, ptr %27, align 8, !tbaa !32
  %29 = icmp ult i64 %28, 16
  call void @llvm.assume(i1 %29)
  br label %_ZNSt7__cxx1112basic_stringIcSt11char_traitsIcESaIcEED2Ev.exit7.i

_ZNKSt7__cxx1112basic_stringIcSt11char_traitsIcESaIcEE11_M_is_localEv.exit.i.i5.i: ; preds = %22
  %30 = load i64, ptr %25, align 8, !tbaa !33
  %31 = add i64 %30, 1
  call void @_ZdlPvm(ptr noundef %24, i64 noundef %31) #16
  br label %_ZNSt7__cxx1112basic_stringIcSt11char_traitsIcESaIcEED2Ev.exit7.i

_ZNSt7__cxx1112basic_stringIcSt11char_traitsIcESaIcEED2Ev.exit7.i: ; preds = %_ZNKSt7__cxx1112basic_stringIcSt11char_traitsIcESaIcEE11_M_is_localEv.exit.i.i5.i, %_ZNKSt7__cxx1112basic_stringIcSt11char_traitsIcESaIcEE11_M_is_localEv.exit.thread.i.i6.i
  call void @llvm.lifetime.end.p0(i64 16, ptr nonnull %6) #15
  call void @llvm.lifetime.end.p0(i64 32, ptr nonnull %5) #15
  resume { ptr, i32 } %23

_ZN5vcpkg4Json6Object6insertINSt7__cxx1112basic_stringIcSt11char_traitsIcESaIcEEETnNSt9enable_ifIXsr3stdE18is_constructible_vINS_10StringViewERKT_EEiE4typeELi0EEERNS0_5ValueESA_SD_.exit: ; preds = %_ZNKSt7__cxx1112basic_stringIcSt11char_traitsIcESaIcEE11_M_is_localEv.exit.thread.i.i.i, %_ZNKSt7__cxx1112basic_stringIcSt11char_traitsIcESaIcEE11_M_is_localEv.exit.i.i.i
  call void @llvm.lifetime.end.p0(i64 16, ptr nonnull %6) #15
  call void @llvm.lifetime.end.p0(i64 32, ptr nonnull %5) #15
  br label %32

32:                                               ; preds = %_ZN5vcpkg4Json6Object6insertINSt7__cxx1112basic_stringIcSt11char_traitsIcESaIcEEETnNSt9enable_ifIXsr3stdE18is_constructible_vINS_10StringViewERKT_EEiE4typeELi0EEERNS0_5ValueESA_SD_.exit, %4
  ret void
}